target datalayout = "e-m:e-p270:32:32-p271:32:32-p272:64:64-i64:64-i128:128-f80:128-n8:16:32:64-S128"
target triple = "x86_64-pc-linux-gnu"

%"struct.Luau::NotNull" = type { ptr }
%"struct.Luau::TypeLevel" = type { i32, i32 }
%"struct.Luau::Substitution" = type { %"struct.Luau::Tarjan", ptr, %"class.Luau::DenseHashMap.23", %"class.Luau::DenseHashMap.26", %"class.Luau::DenseHashSet", %"class.Luau::DenseHashSet.31", %"class.Luau::DenseHashSet", %"class.Luau::DenseHashSet.31" }
%"struct.Luau::Tarjan" = type { ptr, %"class.Luau::DenseHashMap", %"class.Luau::DenseHashMap.0", %"class.std::vector", %"class.std::vector.3", i32, i32, ptr, %"class.std::vector.8", %"class.std::vector.13", %"class.std::vector.18" }
%"class.Luau::DenseHashMap" = type { %"class.Luau::detail::DenseHashTable" }
%"class.Luau::detail::DenseHashTable" = type <{ ptr, i64, i64, ptr, [8 x i8] }>
%"class.Luau::DenseHashMap.0" = type { %"class.Luau::detail::DenseHashTable.1" }
%"class.Luau::detail::DenseHashTable.1" = type <{ ptr, i64, i64, ptr, [8 x i8] }>
%"class.std::vector" = type { %"struct.std::_Vector_base" }
%"struct.std::_Vector_base" = type { %"struct.std::_Vector_base<Luau::TarjanNode, std::allocator<Luau::TarjanNode>>::_Vector_impl" }
%"struct.std::_Vector_base<Luau::TarjanNode, std::allocator<Luau::TarjanNode>>::_Vector_impl" = type { %"struct.std::_Vector_base<Luau::TarjanNode, std::allocator<Luau::TarjanNode>>::_Vector_impl_data" }
%"struct.std::_Vector_base<Luau::TarjanNode, std::allocator<Luau::TarjanNode>>::_Vector_impl_data" = type { ptr, ptr, ptr }
%"class.std::vector.3" = type { %"struct.std::_Vector_base.4" }
%"struct.std::_Vector_base.4" = type { %"struct.std::_Vector_base<int, std::allocator<int>>::_Vector_impl" }
%"struct.std::_Vector_base<int, std::allocator<int>>::_Vector_impl" = type { %"struct.std::_Vector_base<int, std::allocator<int>>::_Vector_impl_data" }
%"struct.std::_Vector_base<int, std::allocator<int>>::_Vector_impl_data" = type { ptr, ptr, ptr }
%"class.std::vector.8" = type { %"struct.std::_Vector_base.9" }
%"struct.std::_Vector_base.9" = type { %"struct.std::_Vector_base<const Luau::Type *, std::allocator<const Luau::Type *>>::_Vector_impl" }
%"struct.std::_Vector_base<const Luau::Type *, std::allocator<const Luau::Type *>>::_Vector_impl" = type { %"struct.std::_Vector_base<const Luau::Type *, std::allocator<const Luau::Type *>>::_Vector_impl_data" }
%"struct.std::_Vector_base<const Luau::Type *, std::allocator<const Luau::Type *>>::_Vector_impl_data" = type { ptr, ptr, ptr }
%"class.std::vector.13" = type { %"struct.std::_Vector_base.14" }
%"struct.std::_Vector_base.14" = type { %"struct.std::_Vector_base<const Luau::TypePackVar *, std::allocator<const Luau::TypePackVar *>>::_Vector_impl" }
%"struct.std::_Vector_base<const Luau::TypePackVar *, std::allocator<const Luau::TypePackVar *>>::_Vector_impl" = type { %"struct.std::_Vector_base<const Luau::TypePackVar *, std::allocator<const Luau::TypePackVar *>>::_Vector_impl_data" }
%"struct.std::_Vector_base<const Luau::TypePackVar *, std::allocator<const Luau::TypePackVar *>>::_Vector_impl_data" = type { ptr, ptr, ptr }
%"class.std::vector.18" = type { %"struct.std::_Vector_base.19" }
%"struct.std::_Vector_base.19" = type { %"struct.std::_Vector_base<Luau::TarjanWorklistVertex, std::allocator<Luau::TarjanWorklistVertex>>::_Vector_impl" }
%"struct.std::_Vector_base<Luau::TarjanWorklistVertex, std::allocator<Luau::TarjanWorklistVertex>>::_Vector_impl" = type { %"struct.std::_Vector_base<Luau::TarjanWorklistVertex, std::allocator<Luau::TarjanWorklistVertex>>::_Vector_impl_data" }
%"struct.std::_Vector_base<Luau::TarjanWorklistVertex, std::allocator<Luau::TarjanWorklistVertex>>::_Vector_impl_data" = type { ptr, ptr, ptr }
%"class.Luau::DenseHashMap.23" = type { %"class.Luau::detail::DenseHashTable.24" }
%"class.Luau::detail::DenseHashTable.24" = type <{ ptr, i64, i64, ptr, [8 x i8] }>
%"class.Luau::DenseHashMap.26" = type { %"class.Luau::detail::DenseHashTable.27" }
%"class.Luau::detail::DenseHashTable.27" = type <{ ptr, i64, i64, ptr, [8 x i8] }>
%"class.Luau::DenseHashSet" = type { %"class.Luau::detail::DenseHashTable.29" }
%"class.Luau::detail::DenseHashTable.29" = type <{ ptr, i64, i64, ptr, [8 x i8] }>
%"class.Luau::DenseHashSet.31" = type { %"class.Luau::detail::DenseHashTable.32" }
%"class.Luau::detail::DenseHashTable.32" = type <{ ptr, i64, i64, ptr, [8 x i8] }>
%"struct.Luau::ReplaceGenerics" = type { %"struct.Luau::Substitution", %"struct.Luau::NotNull", %"struct.Luau::TypeLevel", ptr, %"class.std::vector.8", %"class.std::vector.13" }

; Function Attrs: mustprogress uwtable
define dso_local void @_ZN4Luau15ReplaceGenerics10resetStateEPKNS_6TxnLogEPNS_9TypeArenaENS_7NotNullINS_12BuiltinTypesEEENS_9TypeLevelEPNS_5ScopeERKSt6vectorIPKNS_4TypeESaISF_EERKSC_IPKNS_11TypePackVarESaISM_EE(ptr noundef nonnull align 8 dereferenceable(544) %0, ptr noundef %1, ptr noundef %2, ptr %3, i64 %4, ptr noundef %5, ptr noundef nonnull align 8 dereferenceable(24) %6, ptr noundef nonnull align 8 dereferenceable(24) %7) #2 align 2 {
  %9 = alloca %"struct.Luau::NotNull", align 8
  %10 = alloca %"struct.Luau::TypeLevel", align 4
  %11 = alloca ptr, align 8
  %12 = alloca ptr, align 8
  %13 = alloca ptr, align 8
  %14 = alloca ptr, align 8
  %15 = alloca ptr, align 8
  %16 = alloca ptr, align 8
  %17 = getelementptr inbounds nuw %"struct.Luau::NotNull", ptr %9, i32 0, i32 0
  store ptr %3, ptr %17, align 8
  store i64 %4, ptr %10, align 4
  store ptr %0, ptr %11, align 8, !tbaa !133
  store ptr %1, ptr %12, align 8, !tbaa !11
  store ptr %2, ptr %13, align 8, !tbaa !13
  store ptr %5, ptr %14, align 8, !tbaa !15
  store ptr %6, ptr %15, align 8, !tbaa !135
  store ptr %7, ptr %16, align 8, !tbaa !137
  %18 = load ptr, ptr %11, align 8
  %19 = load ptr, ptr %12, align 8, !tbaa !11
  %20 = load ptr, ptr %13, align 8, !tbaa !13
  call void @_ZN4Luau12Substitution10resetStateEPKNS_6TxnLogEPNS_9TypeArenaE(ptr noundef nonnull align 8 dereferenceable(472) %18, ptr noundef %19, ptr noundef %20)
  %21 = getelementptr inbounds nuw %"struct.Luau::ReplaceGenerics", ptr %18, i32 0, i32 1
  call void @llvm.memcpy.p0.p0.i64(ptr align 8 %21, ptr align 8 %9, i64 8, i1 false), !tbaa.struct !17
  %22 = getelementptr inbounds nuw %"struct.Luau::ReplaceGenerics", ptr %18, i32 0, i32 2
  call void @llvm.memcpy.p0.p0.i64(ptr align 8 %22, ptr align 4 %10, i64 8, i1 false), !tbaa.struct !20
  %23 = load ptr, ptr %14, align 8, !tbaa !15
  %24 = getelementptr inbounds nuw %"struct.Luau::ReplaceGenerics", ptr %18, i32 0, i32 3
  store ptr %23, ptr %24, align 8, !tbaa !139
  %25 = load ptr, ptr %15, align 8, !tbaa !135
  %26 = getelementptr inbounds nuw %"struct.Luau::ReplaceGenerics", ptr %18, i32 0, i32 4
  %27 = call noundef nonnull align 8 dereferenceable(24) ptr @_ZNSt6vectorIPKN4Luau4TypeESaIS3_EEaSERKS5_(ptr noundef nonnull align 8 dereferenceable(24) %26, ptr noundef nonnull align 8 dereferenceable(24) %25)
  %28 = load ptr, ptr %16, align 8, !tbaa !137
  %29 = getelementptr inbounds nuw %"struct.Luau::ReplaceGenerics", ptr %18, i32 0, i32 5
  %30 = call noundef nonnull align 8 dereferenceable(24) ptr @_ZNSt6vectorIPKN4Luau11TypePackVarESaIS3_EEaSERKS5_(ptr noundef nonnull align 8 dereferenceable(24) %29, ptr noundef nonnull align 8 dereferenceable(24) %28)
  ret void
}