; Function Attrs: mustprogress uwtable
define dso_local void @_ZN4Luau15ReplaceGenerics10resetStateEPKNS_6TxnLogEPNS_9TypeArenaENS_7NotNullINS_12BuiltinTypesEEENS_9TypeLevelEPNS_5ScopeERKSt6vectorIPKNS_4TypeESaISF_EERKSC_IPKNS_11TypePackVarESaISM_EE(ptr noundef nonnull align 8 dereferenceable(544) %0, ptr noundef %1, ptr noundef %2, ptr %3, i64 %4, ptr noundef %5, ptr noundef nonnull align 8 dereferenceable(24) %6, ptr noundef nonnull align 8 dereferenceable(24) %7) local_unnamed_addr #2 align 2 {
  tail call void @_ZN4Luau12Substitution10resetStateEPKNS_6TxnLogEPNS_9TypeArenaE(ptr noundef nonnull align 8 dereferenceable(472) %0, ptr noundef %1, ptr noundef %2)
  %9 = getelementptr inbounds nuw i8, ptr %0, i64 472
  store ptr %3, ptr %9, align 8, !tbaa !8
  %10 = getelementptr inbounds nuw i8, ptr %0, i64 480
  store i64 %4, ptr %10, align 8
  %11 = getelementptr inbounds nuw i8, ptr %0, i64 488
  store ptr %5, ptr %11, align 8, !tbaa !120
  %12 = getelementptr inbounds nuw i8, ptr %0, i64 496
  %13 = tail call noundef nonnull align 8 dereferenceable(24) ptr @_ZNSt6vectorIPKN4Luau4TypeESaIS3_EEaSERKS5_(ptr noundef nonnull align 8 dereferenceable(24) %12, ptr noundef nonnull align 8 dereferenceable(24) %6)
  %14 = getelementptr inbounds nuw i8, ptr %0, i64 520
  %15 = tail call noundef nonnull align 8 dereferenceable(24) ptr @_ZNSt6vectorIPKN4Luau11TypePackVarESaIS3_EEaSERKS5_(ptr noundef nonnull align 8 dereferenceable(24) %14, ptr noundef nonnull align 8 dereferenceable(24) %7)
  ret void
}